target datalayout = "e-m:e-p270:32:32-p271:32:32-p272:64:64-i64:64-i128:128-f80:128-n8:16:32:64-S128"
target triple = "x86_64-pc-linux-gnu"

%struct.fstReaderContext = type { ptr, ptr, i64, i64, i64, i64, i64, i32, i64, i64, ptr, ptr, ptr, i32, ptr, i8, i8, i8, [129 x i8], [120 x i8], i64, ptr, ptr, i64, i32, ptr, ptr, i64, i64, i8, ptr, i64, i64, ptr, i64, ptr, ptr, i64, i64, ptr, i32, i32, ptr, i32, i32, i32, i64, i8, %struct.fstHier, ptr, i32, ptr, i32, i8, [513 x i8], [513 x i8], ptr, i8, i32, i32, [65536 x i8], ptr, ptr }
%struct.fstHier = type { i8, %union.anon }
%union.anon = type { %"struct.fstHier::(anonymous union)::fstHierAttr" }
%"struct.fstHier::(anonymous union)::fstHierAttr" = type { i8, i8, ptr, i64, i64, i32 }

; Function Attrs: mustprogress nounwind uwtable
define void @fstReaderSetLimitTimeRange(ptr noundef %0, i64 noundef %1, i64 noundef %2) #8 {
  %4 = alloca ptr, align 8
  %5 = alloca i64, align 8
  %6 = alloca i64, align 8
  %7 = alloca ptr, align 8
  store ptr %0, ptr %4, align 8, !tbaa !50
  store i64 %1, ptr %5, align 8, !tbaa !35
  store i64 %2, ptr %6, align 8, !tbaa !35
  call void @llvm.lifetime.start.p0(i64 8, ptr %7) #15
  %8 = load ptr, ptr %4, align 8, !tbaa !50
  store ptr %8, ptr %7, align 8, !tbaa !147
  %9 = load ptr, ptr %7, align 8, !tbaa !147
  %10 = icmp ne ptr %9, null
  br i1 %10, label %11, label %23

11:                                               ; preds = %3
  %12 = load ptr, ptr %7, align 8, !tbaa !147
  %13 = getelementptr inbounds nuw %struct.fstReaderContext, ptr %12, i32 0, i32 17
  %14 = load i8, ptr %13, align 2
  %15 = and i8 %14, 127
  %16 = or i8 %15, -128
  store i8 %16, ptr %13, align 2
  %17 = load i64, ptr %5, align 8, !tbaa !35
  %18 = load ptr, ptr %7, align 8, !tbaa !147
  %19 = getelementptr inbounds nuw %struct.fstReaderContext, ptr %18, i32 0, i32 27
  store i64 %17, ptr %19, align 8, !tbaa !176
  %20 = load i64, ptr %6, align 8, !tbaa !35
  %21 = load ptr, ptr %7, align 8, !tbaa !147
  %22 = getelementptr inbounds nuw %struct.fstReaderContext, ptr %21, i32 0, i32 28
  store i64 %20, ptr %22, align 8, !tbaa !177
  br label %23

23:                                               ; preds = %11, %3
  call void @llvm.lifetime.end.p0(i64 8, ptr %7) #15
  ret void
}