; Function Attrs: mustprogress nofree norecurse nosync nounwind willreturn memory(argmem: readwrite) uwtable
define void @fstReaderSetLimitTimeRange(ptr noundef captures(address_is_null) %0, i64 noundef %1, i64 noundef %2) local_unnamed_addr #11 {
  %.not = icmp eq ptr %0, null
  br i1 %.not, label %10, label %4

4:                                                ; preds = %3
  %5 = getelementptr inbounds nuw i8, ptr %0, i64 122
  %6 = load i8, ptr %5, align 2
  %7 = or i8 %6, -128
  store i8 %7, ptr %5, align 2
  %8 = getelementptr inbounds nuw i8, ptr %0, i64 432
  store i64 %1, ptr %8, align 8, !tbaa !150
  %9 = getelementptr inbounds nuw i8, ptr %0, i64 440
  store i64 %2, ptr %9, align 8, !tbaa !151
  br label %10

10:                                               ; preds = %4, %3
  ret void
}